; Function Attrs: nounwind uwtable
define noalias ptr @X509_VERIFY_PARAM_new() local_unnamed_addr #0 {
  %1 = tail call noalias ptr @CRYPTO_zalloc(i64 noundef 112, ptr noundef nonnull @.str, i32 noundef 86) #9
  %2 = icmp eq ptr %1, null
  br i1 %2, label %7, label %3

3:                                                ; preds = %0
  %4 = getelementptr inbounds nuw i8, ptr %1, i64 36
  store i32 0, ptr %4, align 4, !tbaa !3
  %5 = getelementptr inbounds nuw i8, ptr %1, i64 40
  store i32 -1, ptr %5, align 8, !tbaa !13
  %6 = getelementptr inbounds nuw i8, ptr %1, i64 44
  store i32 -1, ptr %6, align 4, !tbaa !14
  br label %7

7:                                                ; preds = %0, %3
  ret ptr %1
}